; Function Attrs: nounwind uwtable
define i32 @IDASetSensMaxNonlinIters(ptr noundef readonly %0, i32 noundef %1) local_unnamed_addr #0 {
  %3 = icmp eq ptr %0, null
  br i1 %3, label %4, label %5

4:                                                ; preds = %2
  tail call void (ptr, i32, i32, ptr, ptr, ptr, ...) @IDAProcessError(ptr noundef null, i32 noundef -20, i32 noundef 973, ptr noundef nonnull @__func__.IDASetSensMaxNonlinIters, ptr noundef nonnull @.str, ptr noundef nonnull @.str.1) #9
  br label %12

5:                                                ; preds = %2
  %6 = getelementptr inbounds nuw i8, ptr %0, i64 1768
  %7 = load ptr, ptr %6, align 8
  %8 = icmp eq ptr %7, null
  br i1 %8, label %9, label %10

9:                                                ; preds = %5
  tail call void (ptr, i32, i32, ptr, ptr, ptr, ...) @IDAProcessError(ptr noundef null, i32 noundef -21, i32 noundef 982, ptr noundef nonnull @__func__.IDASetSensMaxNonlinIters, ptr noundef nonnull @.str, ptr noundef nonnull @.str.8) #9
  br label %12

10:                                               ; preds = %5
  %11 = tail call i32 @SUNNonlinSolSetMaxIters(ptr noundef nonnull %7, i32 noundef %1) #9
  br label %12

12:                                               ; preds = %10, %9, %4
  %.0 = phi i32 [ -20, %4 ], [ -21, %9 ], [ %11, %10 ]
  ret i32 %.0
}